target datalayout = "e-m:e-p270:32:32-p271:32:32-p272:64:64-i64:64-i128:128-f80:128-n8:16:32:64-S128"
target triple = "x86_64-pc-linux-gnu"

%"class.ncnn::Mat" = type { ptr, ptr, i64, i32, ptr, i32, i32, i32, i32, i32, i64 }

@stderr = external global ptr, align 8
@.str = private unnamed_addr constant [24 x i8] c"unknown convert type %d\00", align 1
@.str.1 = private unnamed_addr constant [2 x i8] c"\0A\00", align 1
@.str.3 = private unnamed_addr constant [35 x i8] c"roi %d %d %d %d out of image %d %d\00", align 1

; Function Attrs: alwaysinline mustprogress nounwind uwtable
define linkonce_odr hidden void @_ZN4ncnn3MatC2Ev(ptr noundef nonnull align 8 dereferenceable(72) %0) unnamed_addr #5 comdat align 2 {
  %2 = alloca ptr, align 8
  store ptr %0, ptr %2, align 8, !tbaa !25
  %3 = load ptr, ptr %2, align 8
  %4 = getelementptr inbounds nuw %"class.ncnn::Mat", ptr %3, i32 0, i32 0
  store ptr null, ptr %4, align 8, !tbaa !27
  %5 = getelementptr inbounds nuw %"class.ncnn::Mat", ptr %3, i32 0, i32 1
  store ptr null, ptr %5, align 8, !tbaa !30
  %6 = getelementptr inbounds nuw %"class.ncnn::Mat", ptr %3, i32 0, i32 2
  store i64 0, ptr %6, align 8, !tbaa !31
  %7 = getelementptr inbounds nuw %"class.ncnn::Mat", ptr %3, i32 0, i32 3
  store i32 0, ptr %7, align 8, !tbaa !32
  %8 = getelementptr inbounds nuw %"class.ncnn::Mat", ptr %3, i32 0, i32 4
  store ptr null, ptr %8, align 8, !tbaa !33
  %9 = getelementptr inbounds nuw %"class.ncnn::Mat", ptr %3, i32 0, i32 5
  store i32 0, ptr %9, align 8, !tbaa !34
  %10 = getelementptr inbounds nuw %"class.ncnn::Mat", ptr %3, i32 0, i32 6
  store i32 0, ptr %10, align 4, !tbaa !35
  %11 = getelementptr inbounds nuw %"class.ncnn::Mat", ptr %3, i32 0, i32 7
  store i32 0, ptr %11, align 8, !tbaa !36
  %12 = getelementptr inbounds nuw %"class.ncnn::Mat", ptr %3, i32 0, i32 8
  store i32 0, ptr %12, align 4, !tbaa !37
  %13 = getelementptr inbounds nuw %"class.ncnn::Mat", ptr %3, i32 0, i32 9
  store i32 0, ptr %13, align 8, !tbaa !38
  %14 = getelementptr inbounds nuw %"class.ncnn::Mat", ptr %3, i32 0, i32 10
  store i64 0, ptr %14, align 8, !tbaa !39
  ret void
}

; Function Attrs: mustprogress uwtable
define hidden void @_ZN4ncnn3Mat22from_pixels_roi_resizeEPKhiiiiiiiiiiPNS_9AllocatorE(ptr dead_on_unwind noalias writable sret(%"class.ncnn::Mat") align 8 %0, ptr noundef %1, i32 noundef %2, i32 noundef %3, i32 noundef %4, i32 noundef %5, i32 noundef %6, i32 noundef %7, i32 noundef %8, i32 noundef %9, i32 noundef %10, i32 noundef %11, ptr noundef %12) #0 align 2 {
  %14 = alloca ptr, align 8
  %15 = alloca ptr, align 8
  %16 = alloca i32, align 4
  %17 = alloca i32, align 4
  %18 = alloca i32, align 4
  %19 = alloca i32, align 4
  %20 = alloca i32, align 4
  %21 = alloca i32, align 4
  %22 = alloca i32, align 4
  %23 = alloca i32, align 4
  %24 = alloca i32, align 4
  %25 = alloca i32, align 4
  %26 = alloca ptr, align 8
  %27 = alloca i32, align 4
  %28 = alloca i32, align 4
  store ptr %0, ptr %14, align 8
  store ptr %1, ptr %15, align 8, !tbaa !4
  store i32 %2, ptr %16, align 4, !tbaa !9
  store i32 %3, ptr %17, align 4, !tbaa !9
  store i32 %4, ptr %18, align 4, !tbaa !9
  store i32 %5, ptr %19, align 4, !tbaa !9
  store i32 %6, ptr %20, align 4, !tbaa !9
  store i32 %7, ptr %21, align 4, !tbaa !9
  store i32 %8, ptr %22, align 4, !tbaa !9
  store i32 %9, ptr %23, align 4, !tbaa !9
  store i32 %10, ptr %24, align 4, !tbaa !9
  store i32 %11, ptr %25, align 4, !tbaa !9
  store ptr %12, ptr %26, align 8, !tbaa !21
  %29 = load i32, ptr %20, align 4, !tbaa !9
  %30 = icmp slt i32 %29, 0
  br i1 %30, label %52, label %31

31:                                               ; preds = %13
  %32 = load i32, ptr %21, align 4, !tbaa !9
  %33 = icmp slt i32 %32, 0
  br i1 %33, label %52, label %34

34:                                               ; preds = %31
  %35 = load i32, ptr %22, align 4, !tbaa !9
  %36 = icmp sle i32 %35, 0
  br i1 %36, label %52, label %37

37:                                               ; preds = %34
  %38 = load i32, ptr %23, align 4, !tbaa !9
  %39 = icmp sle i32 %38, 0
  br i1 %39, label %52, label %40

40:                                               ; preds = %37
  %41 = load i32, ptr %20, align 4, !tbaa !9
  %42 = load i32, ptr %22, align 4, !tbaa !9
  %43 = add nsw i32 %41, %42
  %44 = load i32, ptr %17, align 4, !tbaa !9
  %45 = icmp sgt i32 %43, %44
  br i1 %45, label %52, label %46

46:                                               ; preds = %40
  %47 = load i32, ptr %21, align 4, !tbaa !9
  %48 = load i32, ptr %23, align 4, !tbaa !9
  %49 = add nsw i32 %47, %48
  %50 = load i32, ptr %18, align 4, !tbaa !9
  %51 = icmp sgt i32 %49, %50
  br i1 %51, label %52, label %65

52:                                               ; preds = %46, %40, %37, %34, %31, %13
  br label %53

53:                                               ; preds = %52
  %54 = load ptr, ptr @stderr, align 8, !tbaa !23
  %55 = load i32, ptr %20, align 4, !tbaa !9
  %56 = load i32, ptr %21, align 4, !tbaa !9
  %57 = load i32, ptr %22, align 4, !tbaa !9
  %58 = load i32, ptr %23, align 4, !tbaa !9
  %59 = load i32, ptr %17, align 4, !tbaa !9
  %60 = load i32, ptr %18, align 4, !tbaa !9
  %61 = call i32 (ptr, ptr, ...) @fprintf(ptr noundef %54, ptr noundef @.str.3, i32 noundef %55, i32 noundef %56, i32 noundef %57, i32 noundef %58, i32 noundef %59, i32 noundef %60) #9
  %62 = load ptr, ptr @stderr, align 8, !tbaa !23
  %63 = call i32 (ptr, ptr, ...) @fprintf(ptr noundef %62, ptr noundef @.str.1) #9
  br label %64

64:                                               ; preds = %53
  call void @_ZN4ncnn3MatC2Ev(ptr noundef nonnull align 8 dereferenceable(72) %0)
  br label %148

65:                                               ; preds = %46
  call void @llvm.lifetime.start.p0(i64 4, ptr %27) #9
  %66 = load i32, ptr %16, align 4, !tbaa !9
  %67 = and i32 %66, 65535
  store i32 %67, ptr %27, align 4, !tbaa !9
  %68 = load i32, ptr %27, align 4, !tbaa !9
  %69 = icmp eq i32 %68, 1
  br i1 %69, label %73, label %70

70:                                               ; preds = %65
  %71 = load i32, ptr %27, align 4, !tbaa !9
  %72 = icmp eq i32 %71, 2
  br i1 %72, label %73, label %91

73:                                               ; preds = %70, %65
  %74 = load ptr, ptr %15, align 8, !tbaa !4
  %75 = load i32, ptr %21, align 4, !tbaa !9
  %76 = load i32, ptr %19, align 4, !tbaa !9
  %77 = mul nsw i32 %75, %76
  %78 = sext i32 %77 to i64
  %79 = getelementptr inbounds i8, ptr %74, i64 %78
  %80 = load i32, ptr %20, align 4, !tbaa !9
  %81 = mul nsw i32 %80, 3
  %82 = sext i32 %81 to i64
  %83 = getelementptr inbounds i8, ptr %79, i64 %82
  %84 = load i32, ptr %16, align 4, !tbaa !9
  %85 = load i32, ptr %22, align 4, !tbaa !9
  %86 = load i32, ptr %23, align 4, !tbaa !9
  %87 = load i32, ptr %19, align 4, !tbaa !9
  %88 = load i32, ptr %24, align 4, !tbaa !9
  %89 = load i32, ptr %25, align 4, !tbaa !9
  %90 = load ptr, ptr %26, align 8, !tbaa !21
  call void @_ZN4ncnn3Mat18from_pixels_resizeEPKhiiiiiiPNS_9AllocatorE(ptr dead_on_unwind writable sret(%"class.ncnn::Mat") align 8 %0, ptr noundef %83, i32 noundef %84, i32 noundef %85, i32 noundef %86, i32 noundef %87, i32 noundef %88, i32 noundef %89, ptr noundef %90)
  store i32 1, ptr %28, align 4
  br label %147

91:                                               ; preds = %70
  %92 = load i32, ptr %27, align 4, !tbaa !9
  %93 = icmp eq i32 %92, 3
  br i1 %93, label %94, label %112

94:                                               ; preds = %91
  %95 = load ptr, ptr %15, align 8, !tbaa !4
  %96 = load i32, ptr %21, align 4, !tbaa !9
  %97 = load i32, ptr %19, align 4, !tbaa !9
  %98 = mul nsw i32 %96, %97
  %99 = sext i32 %98 to i64
  %100 = getelementptr inbounds i8, ptr %95, i64 %99
  %101 = load i32, ptr %20, align 4, !tbaa !9
  %102 = mul nsw i32 %101, 1
  %103 = sext i32 %102 to i64
  %104 = getelementptr inbounds i8, ptr %100, i64 %103
  %105 = load i32, ptr %16, align 4, !tbaa !9
  %106 = load i32, ptr %22, align 4, !tbaa !9
  %107 = load i32, ptr %23, align 4, !tbaa !9
  %108 = load i32, ptr %19, align 4, !tbaa !9
  %109 = load i32, ptr %24, align 4, !tbaa !9
  %110 = load i32, ptr %25, align 4, !tbaa !9
  %111 = load ptr, ptr %26, align 8, !tbaa !21
  call void @_ZN4ncnn3Mat18from_pixels_resizeEPKhiiiiiiPNS_9AllocatorE(ptr dead_on_unwind writable sret(%"class.ncnn::Mat") align 8 %0, ptr noundef %104, i32 noundef %105, i32 noundef %106, i32 noundef %107, i32 noundef %108, i32 noundef %109, i32 noundef %110, ptr noundef %111)
  store i32 1, ptr %28, align 4
  br label %147

112:                                              ; preds = %91
  %113 = load i32, ptr %27, align 4, !tbaa !9
  %114 = icmp eq i32 %113, 4
  br i1 %114, label %118, label %115

115:                                              ; preds = %112
  %116 = load i32, ptr %27, align 4, !tbaa !9
  %117 = icmp eq i32 %116, 5
  br i1 %117, label %118, label %136

118:                                              ; preds = %115, %112
  %119 = load ptr, ptr %15, align 8, !tbaa !4
  %120 = load i32, ptr %21, align 4, !tbaa !9
  %121 = load i32, ptr %19, align 4, !tbaa !9
  %122 = mul nsw i32 %120, %121
  %123 = sext i32 %122 to i64
  %124 = getelementptr inbounds i8, ptr %119, i64 %123
  %125 = load i32, ptr %20, align 4, !tbaa !9
  %126 = mul nsw i32 %125, 4
  %127 = sext i32 %126 to i64
  %128 = getelementptr inbounds i8, ptr %124, i64 %127
  %129 = load i32, ptr %16, align 4, !tbaa !9
  %130 = load i32, ptr %22, align 4, !tbaa !9
  %131 = load i32, ptr %23, align 4, !tbaa !9
  %132 = load i32, ptr %19, align 4, !tbaa !9
  %133 = load i32, ptr %24, align 4, !tbaa !9
  %134 = load i32, ptr %25, align 4, !tbaa !9
  %135 = load ptr, ptr %26, align 8, !tbaa !21
  call void @_ZN4ncnn3Mat18from_pixels_resizeEPKhiiiiiiPNS_9AllocatorE(ptr dead_on_unwind writable sret(%"class.ncnn::Mat") align 8 %0, ptr noundef %128, i32 noundef %129, i32 noundef %130, i32 noundef %131, i32 noundef %132, i32 noundef %133, i32 noundef %134, ptr noundef %135)
  store i32 1, ptr %28, align 4
  br label %147

136:                                              ; preds = %115
  br label %137

137:                                              ; preds = %136
  br label %138

138:                                              ; preds = %137
  br label %139

139:                                              ; preds = %138
  %140 = load ptr, ptr @stderr, align 8, !tbaa !23
  %141 = load i32, ptr %16, align 4, !tbaa !9
  %142 = call i32 (ptr, ptr, ...) @fprintf(ptr noundef %140, ptr noundef @.str, i32 noundef %141) #9
  %143 = load ptr, ptr @stderr, align 8, !tbaa !23
  %144 = call i32 (ptr, ptr, ...) @fprintf(ptr noundef %143, ptr noundef @.str.1) #9
  br label %145

145:                                              ; preds = %139
  br label %146

146:                                              ; preds = %145
  call void @_ZN4ncnn3MatC2Ev(ptr noundef nonnull align 8 dereferenceable(72) %0)
  store i32 1, ptr %28, align 4
  br label %147

147:                                              ; preds = %146, %118, %94, %73
  call void @llvm.lifetime.end.p0(i64 4, ptr %27) #9
  br label %148

148:                                              ; preds = %147, %64
  ret void
}