; Function Attrs: mustprogress uwtable
define hidden void @_ZN4ncnn3Mat22from_pixels_roi_resizeEPKhiiiiiiiiiiPNS_9AllocatorE(ptr dead_on_unwind noalias writable sret(%"class.ncnn::Mat") align 8 %0, ptr noundef %1, i32 noundef %2, i32 noundef %3, i32 noundef %4, i32 noundef %5, i32 noundef %6, i32 noundef %7, i32 noundef %8, i32 noundef %9, i32 noundef %10, i32 noundef %11, ptr noundef %12) local_unnamed_addr #2 align 2 {
  %14 = or i32 %7, %6
  %or.cond = icmp slt i32 %14, 0
  %15 = icmp slt i32 %8, 1
  %or.cond3 = or i1 %or.cond, %15
  %16 = icmp slt i32 %9, 1
  %or.cond5 = or i1 %or.cond3, %16
  %17 = add nuw nsw i32 %8, %6
  %18 = icmp sgt i32 %17, %3
  %or.cond70 = select i1 %or.cond5, i1 true, i1 %18
  %19 = add nuw nsw i32 %9, %7
  %20 = icmp sgt i32 %19, %4
  %or.cond72 = select i1 %or.cond70, i1 true, i1 %20
  br i1 %or.cond72, label %21, label %27

21:                                               ; preds = %13
  %22 = load ptr, ptr @stderr, align 8, !tbaa !14
  %23 = tail call i32 (ptr, ptr, ...) @fprintf(ptr noundef %22, ptr noundef nonnull @.str.3, i32 noundef %6, i32 noundef %7, i32 noundef %8, i32 noundef %9, i32 noundef %3, i32 noundef %4) #13
  %24 = load ptr, ptr @stderr, align 8, !tbaa !14
  %fputc68 = tail call i32 @fputc(i32 10, ptr %24)
  %25 = getelementptr inbounds nuw i8, ptr %0, i64 32
  %26 = getelementptr inbounds nuw i8, ptr %0, i64 64
  store i64 0, ptr %26, align 8, !tbaa !17
  tail call void @llvm.memset.p0.i64(ptr noundef nonnull align 8 dereferenceable(28) %0, i8 0, i64 28, i1 false)
  tail call void @llvm.memset.p0.i64(ptr noundef nonnull align 8 dereferenceable(28) %25, i8 0, i64 28, i1 false)
  br label %60

27:                                               ; preds = %13
  %28 = and i32 %2, 65535
  %29 = add nsw i32 %28, -1
  %or.cond7 = icmp ult i32 %29, 2
  br i1 %or.cond7, label %30, label %37

30:                                               ; preds = %27
  %31 = mul nsw i32 %7, %5
  %32 = sext i32 %31 to i64
  %33 = getelementptr inbounds i8, ptr %1, i64 %32
  %34 = mul nsw i32 %6, 3
  %35 = zext nneg i32 %34 to i64
  %36 = getelementptr inbounds nuw i8, ptr %33, i64 %35
  tail call void @_ZN4ncnn3Mat18from_pixels_resizeEPKhiiiiiiPNS_9AllocatorE(ptr dead_on_unwind writable sret(%"class.ncnn::Mat") align 8 %0, ptr noundef %36, i32 noundef %2, i32 noundef %8, i32 noundef %9, i32 noundef %5, i32 noundef %10, i32 noundef %11, ptr noundef %12)
  br label %60

37:                                               ; preds = %27
  %38 = icmp eq i32 %28, 3
  br i1 %38, label %39, label %45

39:                                               ; preds = %37
  %40 = mul nsw i32 %7, %5
  %41 = sext i32 %40 to i64
  %42 = getelementptr inbounds i8, ptr %1, i64 %41
  %43 = zext nneg i32 %6 to i64
  %44 = getelementptr inbounds nuw i8, ptr %42, i64 %43
  tail call void @_ZN4ncnn3Mat18from_pixels_resizeEPKhiiiiiiPNS_9AllocatorE(ptr dead_on_unwind writable sret(%"class.ncnn::Mat") align 8 %0, ptr noundef %44, i32 noundef %2, i32 noundef %8, i32 noundef %9, i32 noundef %5, i32 noundef %10, i32 noundef %11, ptr noundef %12)
  br label %60

45:                                               ; preds = %37
  %46 = and i32 %2, 65534
  %or.cond9 = icmp eq i32 %46, 4
  br i1 %or.cond9, label %47, label %54

47:                                               ; preds = %45
  %48 = mul nsw i32 %7, %5
  %49 = sext i32 %48 to i64
  %50 = getelementptr inbounds i8, ptr %1, i64 %49
  %51 = shl nsw i32 %6, 2
  %52 = zext nneg i32 %51 to i64
  %53 = getelementptr inbounds nuw i8, ptr %50, i64 %52
  tail call void @_ZN4ncnn3Mat18from_pixels_resizeEPKhiiiiiiPNS_9AllocatorE(ptr dead_on_unwind writable sret(%"class.ncnn::Mat") align 8 %0, ptr noundef %53, i32 noundef %2, i32 noundef %8, i32 noundef %9, i32 noundef %5, i32 noundef %10, i32 noundef %11, ptr noundef %12)
  br label %60

54:                                               ; preds = %45
  %55 = load ptr, ptr @stderr, align 8, !tbaa !14
  %56 = tail call i32 (ptr, ptr, ...) @fprintf(ptr noundef %55, ptr noundef nonnull @.str, i32 noundef %2) #13
  %57 = load ptr, ptr @stderr, align 8, !tbaa !14
  %fputc = tail call i32 @fputc(i32 10, ptr %57)
  %58 = getelementptr inbounds nuw i8, ptr %0, i64 32
  %59 = getelementptr inbounds nuw i8, ptr %0, i64 64
  store i64 0, ptr %59, align 8, !tbaa !17
  tail call void @llvm.memset.p0.i64(ptr noundef nonnull align 8 dereferenceable(28) %0, i8 0, i64 28, i1 false)
  tail call void @llvm.memset.p0.i64(ptr noundef nonnull align 8 dereferenceable(28) %58, i8 0, i64 28, i1 false)
  br label %60

60:                                               ; preds = %30, %39, %47, %54, %21
  ret void
}